target datalayout = "e-m:e-p270:32:32-p271:32:32-p272:64:64-i64:64-i128:128-f80:128-n8:16:32:64-S128"
target triple = "x86_64-pc-linux-gnu"

%struct.SimpleStringList = type { ptr, ptr }
%struct.PQExpBufferData = type { ptr, i64, i64 }
%struct.SimpleStringListCell = type { ptr, i8, [0 x i8] }

@.str.600 = private unnamed_addr constant [56 x i8] c"SELECT pg_catalog.set_config('search_path', '', false);\00", align 1
@.str.634 = private unnamed_addr constant [10 x i8] c"n.nspname\00", align 1
@.str.637 = private unnamed_addr constant [47 x i8] c"You are currently not connected to a database.\00", align 1
@.str.638 = private unnamed_addr constant [50 x i8] c"cross-database references are not implemented: %s\00", align 1
@.str.645 = private unnamed_addr constant [44 x i8] c"WITH RECURSIVE partition_tree (relid) AS (\0A\00", align 1
@.str.647 = private unnamed_addr constant [10 x i8] c"c.relname\00", align 1
@.str.648 = private unnamed_addr constant [38 x i8] c"pg_catalog.pg_table_is_visible(c.oid)\00", align 1
@.str.649 = private unnamed_addr constant [51 x i8] c"improper relation name (too many dotted names): %s\00", align 1
@.str.650 = private unnamed_addr constant [167 x i8] c"UNION\0ASELECT i.inhrelid\0AFROM partition_tree p\0A     JOIN pg_catalog.pg_inherits i\0A     ON p.relid OPERATOR(pg_catalog.=) i.inhparent\0A)\0ASELECT relid FROM partition_tree\00", align 1
@.str.651 = private unnamed_addr constant [18 x i8] c"RESET search_path\00", align 1
@.str.652 = private unnamed_addr constant [47 x i8] c"no matching tables were found for pattern \22%s\22\00", align 1

; Function Attrs: nounwind uwtable
define internal void @prohibit_crossdb_refs(ptr noundef %0, ptr noundef %1, ptr noundef %2) #0 {
  %4 = alloca ptr, align 8
  %5 = alloca ptr, align 8
  %6 = alloca ptr, align 8
  %7 = alloca ptr, align 8
  store ptr %0, ptr %4, align 8
  store ptr %1, ptr %5, align 8
  store ptr %2, ptr %6, align 8
  call void @llvm.lifetime.start.p0(i64 8, ptr %7) #10
  %8 = load ptr, ptr %4, align 8
  %9 = call ptr @PQdb(ptr noundef %8)
  store ptr %9, ptr %7, align 8
  %10 = load ptr, ptr %7, align 8
  %11 = icmp eq ptr %10, null
  br i1 %11, label %12, label %16

12:                                               ; preds = %3
  br label %13

13:                                               ; preds = %12
  call void (i32, i32, ptr, ...) @pg_log_generic(i32 noundef 4, i32 noundef 0, ptr noundef @.str.637)
  call void @exit_nicely(i32 noundef 1) #12
  unreachable

14:                                               ; No predecessors!
  br label %15

15:                                               ; preds = %14
  br label %16

16:                                               ; preds = %15, %3
  %17 = load ptr, ptr %7, align 8
  %18 = load ptr, ptr %5, align 8
  %19 = call i32 @strcmp(ptr noundef %17, ptr noundef %18) #11
  %20 = icmp ne i32 %19, 0
  br i1 %20, label %21, label %26

21:                                               ; preds = %16
  br label %22

22:                                               ; preds = %21
  %23 = load ptr, ptr %6, align 8
  call void (i32, i32, ptr, ...) @pg_log_generic(i32 noundef 4, i32 noundef 0, ptr noundef @.str.638, ptr noundef %23)
  call void @exit_nicely(i32 noundef 1) #12
  unreachable

24:                                               ; No predecessors!
  br label %25

25:                                               ; preds = %24
  br label %26

26:                                               ; preds = %25, %16
  call void @llvm.lifetime.end.p0(i64 8, ptr %7) #10
  ret void
}

; Function Attrs: nounwind uwtable
define internal void @expand_table_name_patterns(ptr noundef %0, ptr noundef %1, ptr noundef %2, i1 noundef zeroext %3, i1 noundef zeroext %4) #0 {
  %6 = alloca ptr, align 8
  %7 = alloca ptr, align 8
  %8 = alloca ptr, align 8
  %9 = alloca i8, align 1
  %10 = alloca i8, align 1
  %11 = alloca ptr, align 8
  %12 = alloca ptr, align 8
  %13 = alloca ptr, align 8
  %14 = alloca i32, align 4
  %15 = alloca i32, align 4
  %16 = alloca %struct.PQExpBufferData, align 8
  %17 = alloca i32, align 4
  store ptr %0, ptr %6, align 8
  store ptr %1, ptr %7, align 8
  store ptr %2, ptr %8, align 8
  %18 = zext i1 %3 to i8
  store i8 %18, ptr %9, align 1
  %19 = zext i1 %4 to i8
  store i8 %19, ptr %10, align 1
  call void @llvm.lifetime.start.p0(i64 8, ptr %11) #10
  call void @llvm.lifetime.start.p0(i64 8, ptr %12) #10
  call void @llvm.lifetime.start.p0(i64 8, ptr %13) #10
  call void @llvm.lifetime.start.p0(i64 4, ptr %14) #10
  %20 = load ptr, ptr %7, align 8
  %21 = getelementptr inbounds nuw %struct.SimpleStringList, ptr %20, i32 0, i32 0
  %22 = load ptr, ptr %21, align 8
  %23 = icmp eq ptr %22, null
  br i1 %23, label %24, label %25

24:                                               ; preds = %5
  store i32 1, ptr %15, align 4
  br label %120

25:                                               ; preds = %5
  %26 = call ptr @createPQExpBuffer()
  store ptr %26, ptr %11, align 8
  %27 = load ptr, ptr %7, align 8
  %28 = getelementptr inbounds nuw %struct.SimpleStringList, ptr %27, i32 0, i32 0
  %29 = load ptr, ptr %28, align 8
  store ptr %29, ptr %13, align 8
  br label %30

30:                                               ; preds = %114, %25
  %31 = load ptr, ptr %13, align 8
  %32 = icmp ne ptr %31, null
  br i1 %32, label %33, label %118

33:                                               ; preds = %30
  call void @llvm.lifetime.start.p0(i64 24, ptr %16) #10
  call void @llvm.lifetime.start.p0(i64 4, ptr %17) #10
  %34 = load i8, ptr %10, align 1, !range !6, !noundef !7
  %35 = trunc i8 %34 to i1
  br i1 %35, label %36, label %38

36:                                               ; preds = %33
  %37 = load ptr, ptr %11, align 8
  call void (ptr, ptr, ...) @appendPQExpBuffer(ptr noundef %37, ptr noundef @.str.645)
  br label %38

38:                                               ; preds = %36, %33
  %39 = load ptr, ptr %11, align 8
  call void (ptr, ptr, ...) @appendPQExpBuffer(ptr noundef %39, ptr noundef @.str.646, i32 noundef 114, i32 noundef 83, i32 noundef 118, i32 noundef 109, i32 noundef 102, i32 noundef 112)
  call void @initPQExpBuffer(ptr noundef %16)
  %40 = load ptr, ptr %6, align 8
  %41 = call ptr @GetConnection(ptr noundef %40)
  %42 = load ptr, ptr %11, align 8
  %43 = load ptr, ptr %13, align 8
  %44 = getelementptr inbounds nuw %struct.SimpleStringListCell, ptr %43, i32 0, i32 2
  %45 = getelementptr inbounds [0 x i8], ptr %44, i64 0, i64 0
  %46 = call zeroext i1 @processSQLNamePattern(ptr noundef %41, ptr noundef %42, ptr noundef %45, i1 noundef zeroext true, i1 noundef zeroext false, ptr noundef @.str.634, ptr noundef @.str.647, ptr noundef null, ptr noundef @.str.648, ptr noundef %16, ptr noundef %17)
  %47 = load i32, ptr %17, align 4
  %48 = icmp sgt i32 %47, 2
  br i1 %48, label %49, label %56

49:                                               ; preds = %38
  br label %50

50:                                               ; preds = %49
  %51 = load ptr, ptr %13, align 8
  %52 = getelementptr inbounds nuw %struct.SimpleStringListCell, ptr %51, i32 0, i32 2
  %53 = getelementptr inbounds [0 x i8], ptr %52, i64 0, i64 0
  call void (i32, i32, ptr, ...) @pg_log_generic(i32 noundef 4, i32 noundef 0, ptr noundef @.str.649, ptr noundef %53)
  call void @exit_nicely(i32 noundef 1) #12
  unreachable

54:                                               ; No predecessors!
  br label %55

55:                                               ; preds = %54
  br label %68

56:                                               ; preds = %38
  %57 = load i32, ptr %17, align 4
  %58 = icmp eq i32 %57, 2
  br i1 %58, label %59, label %67

59:                                               ; preds = %56
  %60 = load ptr, ptr %6, align 8
  %61 = call ptr @GetConnection(ptr noundef %60)
  %62 = getelementptr inbounds nuw %struct.PQExpBufferData, ptr %16, i32 0, i32 0
  %63 = load ptr, ptr %62, align 8
  %64 = load ptr, ptr %13, align 8
  %65 = getelementptr inbounds nuw %struct.SimpleStringListCell, ptr %64, i32 0, i32 2
  %66 = getelementptr inbounds [0 x i8], ptr %65, i64 0, i64 0
  call void @prohibit_crossdb_refs(ptr noundef %61, ptr noundef %63, ptr noundef %66)
  br label %67

67:                                               ; preds = %59, %56
  br label %68

68:                                               ; preds = %67, %55
  call void @termPQExpBuffer(ptr noundef %16)
  %69 = load i8, ptr %10, align 1, !range !6, !noundef !7
  %70 = trunc i8 %69 to i1
  br i1 %70, label %71, label %73

71:                                               ; preds = %68
  %72 = load ptr, ptr %11, align 8
  call void (ptr, ptr, ...) @appendPQExpBuffer(ptr noundef %72, ptr noundef @.str.650)
  br label %73

73:                                               ; preds = %71, %68
  %74 = load ptr, ptr %6, align 8
  call void @ExecuteSqlStatement(ptr noundef %74, ptr noundef @.str.651)
  %75 = load ptr, ptr %6, align 8
  %76 = load ptr, ptr %11, align 8
  %77 = getelementptr inbounds nuw %struct.PQExpBufferData, ptr %76, i32 0, i32 0
  %78 = load ptr, ptr %77, align 8
  %79 = call ptr @ExecuteSqlQuery(ptr noundef %75, ptr noundef %78, i32 noundef 2)
  store ptr %79, ptr %12, align 8
  %80 = load ptr, ptr %6, align 8
  %81 = call ptr @ExecuteSqlQueryForSingleRow(ptr noundef %80, ptr noundef @.str.600)
  call void @PQclear(ptr noundef %81)
  %82 = load i8, ptr %9, align 1, !range !6, !noundef !7
  %83 = trunc i8 %82 to i1
  br i1 %83, label %84, label %95

84:                                               ; preds = %73
  %85 = load ptr, ptr %12, align 8
  %86 = call i32 @PQntuples(ptr noundef %85)
  %87 = icmp eq i32 %86, 0
  br i1 %87, label %88, label %95

88:                                               ; preds = %84
  br label %89

89:                                               ; preds = %88
  %90 = load ptr, ptr %13, align 8
  %91 = getelementptr inbounds nuw %struct.SimpleStringListCell, ptr %90, i32 0, i32 2
  %92 = getelementptr inbounds [0 x i8], ptr %91, i64 0, i64 0
  call void (i32, i32, ptr, ...) @pg_log_generic(i32 noundef 4, i32 noundef 0, ptr noundef @.str.652, ptr noundef %92)
  call void @exit_nicely(i32 noundef 1) #12
  unreachable

93:                                               ; No predecessors!
  br label %94

94:                                               ; preds = %93
  br label %95

95:                                               ; preds = %94, %84, %73
  store i32 0, ptr %14, align 4
  br label %96

96:                                               ; preds = %108, %95
  %97 = load i32, ptr %14, align 4
  %98 = load ptr, ptr %12, align 8
  %99 = call i32 @PQntuples(ptr noundef %98)
  %100 = icmp slt i32 %97, %99
  br i1 %100, label %101, label %111

101:                                              ; preds = %96
  %102 = load ptr, ptr %8, align 8
  %103 = load ptr, ptr %12, align 8
  %104 = load i32, ptr %14, align 4
  %105 = call ptr @PQgetvalue(ptr noundef %103, i32 noundef %104, i32 noundef 0)
  %106 = call i64 @strtoul(ptr noundef %105, ptr noundef null, i32 noundef 10) #10
  %107 = trunc i64 %106 to i32
  call void @simple_oid_list_append(ptr noundef %102, i32 noundef %107)
  br label %108

108:                                              ; preds = %101
  %109 = load i32, ptr %14, align 4
  %110 = add i32 %109, 1
  store i32 %110, ptr %14, align 4
  br label %96, !llvm.loop !12

111:                                              ; preds = %96
  %112 = load ptr, ptr %12, align 8
  call void @PQclear(ptr noundef %112)
  %113 = load ptr, ptr %11, align 8
  call void @resetPQExpBuffer(ptr noundef %113)
  call void @llvm.lifetime.end.p0(i64 4, ptr %17) #10
  call void @llvm.lifetime.end.p0(i64 24, ptr %16) #10
  br label %114

114:                                              ; preds = %111
  %115 = load ptr, ptr %13, align 8
  %116 = getelementptr inbounds nuw %struct.SimpleStringListCell, ptr %115, i32 0, i32 0
  %117 = load ptr, ptr %116, align 8
  store ptr %117, ptr %13, align 8
  br label %30, !llvm.loop !13

118:                                              ; preds = %30
  %119 = load ptr, ptr %11, align 8
  call void @destroyPQExpBuffer(ptr noundef %119)
  store i32 0, ptr %15, align 4
  br label %120

120:                                              ; preds = %118, %24
  call void @llvm.lifetime.end.p0(i64 4, ptr %14) #10
  call void @llvm.lifetime.end.p0(i64 8, ptr %13) #10
  call void @llvm.lifetime.end.p0(i64 8, ptr %12) #10
  call void @llvm.lifetime.end.p0(i64 8, ptr %11) #10
  %121 = load i32, ptr %15, align 4
  switch i32 %121, label %123 [
    i32 0, label %122
    i32 1, label %122
  ]

122:                                              ; preds = %120, %120
  ret void

123:                                              ; preds = %120
  unreachable
}