; Function Attrs: nounwind uwtable
define internal fastcc void @expand_table_name_patterns(ptr noundef %0, ptr noundef readonly captures(none) %1, ptr noundef %2, i1 noundef zeroext %3, i1 noundef zeroext %4) unnamed_addr #5 {
  %6 = alloca %struct.PQExpBufferData, align 8
  %7 = alloca i32, align 4
  %8 = load ptr, ptr %1, align 8
  %9 = icmp eq ptr %8, null
  br i1 %9, label %49, label %10

10:                                               ; preds = %5
  %11 = tail call ptr @createPQExpBuffer() #14
  %.03036 = load ptr, ptr %1, align 8
  %.not37 = icmp eq ptr %.03036, null
  br i1 %.not37, label %._crit_edge41, label %.lr.ph40

.lr.ph40:                                         ; preds = %10, %._crit_edge
  %.03038 = phi ptr [ %.030, %._crit_edge ], [ %.03036, %10 ]
  call void @llvm.lifetime.start.p0(i64 24, ptr nonnull %6) #14
  call void @llvm.lifetime.start.p0(i64 4, ptr nonnull %7) #14
  br i1 %4, label %12, label %13

12:                                               ; preds = %.lr.ph40
  call void (ptr, ptr, ...) @appendPQExpBuffer(ptr noundef %11, ptr noundef nonnull @.str.645) #14
  br label %13

13:                                               ; preds = %12, %.lr.ph40
  call void (ptr, ptr, ...) @appendPQExpBuffer(ptr noundef %11, ptr noundef nonnull @.str.646, i32 noundef 114, i32 noundef 83, i32 noundef 118, i32 noundef 109, i32 noundef 102, i32 noundef 112) #14
  call void @initPQExpBuffer(ptr noundef nonnull %6) #14
  %14 = call ptr @GetConnection(ptr noundef %0) #14
  %15 = getelementptr inbounds nuw i8, ptr %.03038, i64 9
  %16 = call zeroext i1 @processSQLNamePattern(ptr noundef %14, ptr noundef %11, ptr noundef nonnull %15, i1 noundef zeroext true, i1 noundef zeroext false, ptr noundef nonnull @.str.634, ptr noundef nonnull @.str.647, ptr noundef null, ptr noundef nonnull @.str.648, ptr noundef nonnull %6, ptr noundef nonnull %7) #14
  %17 = load i32, ptr %7, align 4
  %18 = icmp sgt i32 %17, 2
  br i1 %18, label %19, label %20

19:                                               ; preds = %13
  call void (i32, i32, ptr, ...) @pg_log_generic(i32 noundef 4, i32 noundef 0, ptr noundef nonnull @.str.649, ptr noundef nonnull %15) #14
  call void @exit_nicely(i32 noundef 1) #16
  unreachable

20:                                               ; preds = %13
  %21 = icmp eq i32 %17, 2
  br i1 %21, label %22, label %prohibit_crossdb_refs.exit

22:                                               ; preds = %20
  %23 = call ptr @GetConnection(ptr noundef %0) #14
  %24 = load ptr, ptr %6, align 8
  %25 = call ptr @PQdb(ptr noundef %23) #14
  %26 = icmp eq ptr %25, null
  br i1 %26, label %27, label %28

27:                                               ; preds = %22
  call void (i32, i32, ptr, ...) @pg_log_generic(i32 noundef 4, i32 noundef 0, ptr noundef nonnull @.str.637) #14
  call void @exit_nicely(i32 noundef 1) #16
  unreachable

28:                                               ; preds = %22
  %29 = call i32 @strcmp(ptr noundef nonnull dereferenceable(1) %25, ptr noundef nonnull readonly dereferenceable(1) %24) #15
  %.not.i = icmp eq i32 %29, 0
  br i1 %.not.i, label %prohibit_crossdb_refs.exit, label %30

30:                                               ; preds = %28
  call void (i32, i32, ptr, ...) @pg_log_generic(i32 noundef 4, i32 noundef 0, ptr noundef nonnull @.str.638, ptr noundef nonnull %15) #14
  call void @exit_nicely(i32 noundef 1) #16
  unreachable

prohibit_crossdb_refs.exit:                       ; preds = %28, %20
  call void @termPQExpBuffer(ptr noundef nonnull %6) #14
  br i1 %4, label %31, label %32

31:                                               ; preds = %prohibit_crossdb_refs.exit
  call void (ptr, ptr, ...) @appendPQExpBuffer(ptr noundef %11, ptr noundef nonnull @.str.650) #14
  br label %32

32:                                               ; preds = %31, %prohibit_crossdb_refs.exit
  call void @ExecuteSqlStatement(ptr noundef %0, ptr noundef nonnull @.str.651) #14
  %33 = load ptr, ptr %11, align 8
  %34 = call ptr @ExecuteSqlQuery(ptr noundef %0, ptr noundef %33, i32 noundef 2) #14
  %35 = call ptr @ExecuteSqlQueryForSingleRow(ptr noundef %0, ptr noundef nonnull @.str.600) #14
  call void @PQclear(ptr noundef %35) #14
  br i1 %3, label %36, label %40

36:                                               ; preds = %32
  %37 = call i32 @PQntuples(ptr noundef %34) #14
  %38 = icmp eq i32 %37, 0
  br i1 %38, label %39, label %40

39:                                               ; preds = %36
  call void (i32, i32, ptr, ...) @pg_log_generic(i32 noundef 4, i32 noundef 0, ptr noundef nonnull @.str.652, ptr noundef nonnull %15) #14
  call void @exit_nicely(i32 noundef 1) #16
  unreachable

40:                                               ; preds = %36, %32
  %41 = call i32 @PQntuples(ptr noundef %34) #14
  %42 = icmp sgt i32 %41, 0
  br i1 %42, label %.lr.ph, label %._crit_edge

.lr.ph:                                           ; preds = %40, %.lr.ph
  %.035 = phi i32 [ %46, %.lr.ph ], [ 0, %40 ]
  %43 = call ptr @PQgetvalue(ptr noundef %34, i32 noundef %.035, i32 noundef 0) #14
  %44 = call i64 @strtoul(ptr noundef captures(none) %43, ptr noundef null, i32 noundef 10) #14
  %45 = trunc i64 %44 to i32
  call void @simple_oid_list_append(ptr noundef %2, i32 noundef %45) #14
  %46 = add nuw nsw i32 %.035, 1
  %47 = call i32 @PQntuples(ptr noundef %34) #14
  %48 = icmp slt i32 %46, %47
  br i1 %48, label %.lr.ph, label %._crit_edge, !llvm.loop !31

._crit_edge:                                      ; preds = %.lr.ph, %40
  call void @PQclear(ptr noundef %34) #14
  call void @resetPQExpBuffer(ptr noundef nonnull %11) #14
  call void @llvm.lifetime.end.p0(i64 4, ptr nonnull %7) #14
  call void @llvm.lifetime.end.p0(i64 24, ptr nonnull %6) #14
  %.030 = load ptr, ptr %.03038, align 8
  %.not = icmp eq ptr %.030, null
  br i1 %.not, label %._crit_edge41, label %.lr.ph40, !llvm.loop !32

._crit_edge41:                                    ; preds = %._crit_edge, %10
  call void @destroyPQExpBuffer(ptr noundef %11) #14
  br label %49

49:                                               ; preds = %5, %._crit_edge41
  ret void
}